target datalayout = "e-m:e-p270:32:32-p271:32:32-p272:64:64-i64:64-i128:128-f80:128-n8:16:32:64-S128"
target triple = "x86_64-pc-linux-gnu"

%struct.CVodeMemRec = type { ptr, double, ptr, ptr, i32, i32, double, double, ptr, i32, i32, ptr, ptr, i32, i32, ptr, i32, i32, double, double, ptr, i32, i32, i32, i32, ptr, ptr, ptr, i32, i32, ptr, ptr, ptr, i32, double, i32, i32, double, ptr, ptr, ptr, i32, ptr, ptr, i32, i32, i32, double, ptr, ptr, ptr, [13 x ptr], ptr, ptr, ptr, ptr, ptr, ptr, ptr, ptr, ptr, [13 x ptr], ptr, ptr, ptr, ptr, [13 x ptr], ptr, ptr, ptr, ptr, ptr, i32, [13 x ptr], ptr, ptr, ptr, ptr, ptr, i32, i32, double, i32, i32, i32, i32, i32, double, double, double, double, double, double, double, double, [14 x double], [6 x double], [13 x double], double, double, double, double, double, double, double, double, i32, double, double, i32, double, double, ptr, i32, i64, i32, i32, i32, double, double, double, double, double, double, double, double, double, double, double, double, i64, i32, i64, i64, i64, i64, i64, i64, i64, i64, i64, ptr, i64, i64, ptr, i64, i64, ptr, i64, i64, i64, i64, i64, i64, i32, double, double, double, i64, i64, i64, i64, i64, i64, ptr, i32, ptr, i32, ptr, i32, ptr, i32, i32, i64, i32, ptr, i32, ptr, ptr, ptr, ptr, ptr, ptr, i32, i32, ptr, ptr, ptr, ptr, ptr, i64, double, i32, i32, i64, double, double, double, i32, i32, double, i32, i32, i32, i32, i32, i32, i32, i32, i32, i32, i32, i32, i32, i32, i32, i32, ptr, i64, i32, [6 x [4 x double]], i32, i64, ptr, i32, ptr, ptr, double, double, double, ptr, ptr, ptr, double, double, i32, i32, i64, ptr, i32, ptr, i32, i32, [13 x double], ptr, ptr, ptr, i32, ptr, i32 }
%struct.CVadjMemRec = type { double, double, i32, i32, double, i32, double, ptr, i32, ptr, i32, ptr, i32, ptr, i64, i64, ptr, i64, i32, ptr, ptr, ptr, ptr, i32, i32, i32, i32, [13 x ptr], [13 x ptr], [13 x double], ptr, ptr }
%struct.CVodeBMemRec = type { i32, double, ptr, i32, i32, ptr, ptr, ptr, ptr, ptr, ptr, ptr, ptr, ptr, double, ptr, ptr }

@.str = private unnamed_addr constant [118 x i8] c"generated/home/dtcxzyw/WorkSpace/Projects/compilers/llvm-opt-benchmark/bench/sundials/sundials/src/cvodes/cvodea_io.c\00", align 1
@.str.1 = private unnamed_addr constant [26 x i8] c"cvode_mem = NULL illegal.\00", align 1
@.str.2 = private unnamed_addr constant [55 x i8] c"Illegal attempt to call before calling CVodeAdjMalloc.\00", align 1
@.str.3 = private unnamed_addr constant [25 x i8] c"Illegal value for which.\00", align 1
@__func__.CVodeGetAdjCVodeBmem = private unnamed_addr constant [21 x i8] c"CVodeGetAdjCVodeBmem\00", align 1

; Function Attrs: nounwind uwtable
define ptr @CVodeGetAdjCVodeBmem(ptr noundef %0, i32 noundef %1) #0 {
  %3 = alloca ptr, align 8
  %4 = alloca ptr, align 8
  %5 = alloca i32, align 4
  %6 = alloca ptr, align 8
  %7 = alloca ptr, align 8
  %8 = alloca ptr, align 8
  %9 = alloca ptr, align 8
  store ptr %0, ptr %4, align 8
  store i32 %1, ptr %5, align 4
  %10 = load ptr, ptr %4, align 8
  %11 = icmp eq ptr %10, null
  br i1 %11, label %12, label %13

12:                                               ; preds = %2
  call void (ptr, i32, i32, ptr, ptr, ptr, ...) @cvProcessError(ptr noundef null, i32 noundef 0, i32 noundef 580, ptr noundef @__func__.CVodeGetAdjCVodeBmem, ptr noundef @.str, ptr noundef @.str.1)
  store ptr null, ptr %3, align 8
  br label %55

13:                                               ; preds = %2
  %14 = load ptr, ptr %4, align 8
  store ptr %14, ptr %6, align 8
  %15 = load ptr, ptr %6, align 8
  %16 = getelementptr inbounds %struct.CVodeMemRec, ptr %15, i32 0, i32 249
  %17 = load i32, ptr %16, align 8
  %18 = icmp eq i32 %17, 0
  br i1 %18, label %19, label %21

19:                                               ; preds = %13
  %20 = load ptr, ptr %6, align 8
  call void (ptr, i32, i32, ptr, ptr, ptr, ...) @cvProcessError(ptr noundef %20, i32 noundef 0, i32 noundef 588, ptr noundef @__func__.CVodeGetAdjCVodeBmem, ptr noundef @.str, ptr noundef @.str.2)
  store ptr null, ptr %3, align 8
  br label %55

21:                                               ; preds = %13
  %22 = load ptr, ptr %6, align 8
  %23 = getelementptr inbounds %struct.CVodeMemRec, ptr %22, i32 0, i32 248
  %24 = load ptr, ptr %23, align 8
  store ptr %24, ptr %7, align 8
  %25 = load i32, ptr %5, align 4
  %26 = load ptr, ptr %7, align 8
  %27 = getelementptr inbounds %struct.CVadjMemRec, ptr %26, i32 0, i32 8
  %28 = load i32, ptr %27, align 8
  %29 = icmp sge i32 %25, %28
  br i1 %29, label %30, label %32

30:                                               ; preds = %21
  %31 = load ptr, ptr %6, align 8
  call void (ptr, i32, i32, ptr, ptr, ptr, ...) @cvProcessError(ptr noundef %31, i32 noundef 0, i32 noundef 596, ptr noundef @__func__.CVodeGetAdjCVodeBmem, ptr noundef @.str, ptr noundef @.str.3)
  store ptr null, ptr %3, align 8
  br label %55

32:                                               ; preds = %21
  %33 = load ptr, ptr %7, align 8
  %34 = getelementptr inbounds %struct.CVadjMemRec, ptr %33, i32 0, i32 7
  %35 = load ptr, ptr %34, align 8
  store ptr %35, ptr %8, align 8
  br label %36

36:                                               ; preds = %46, %32
  %37 = load ptr, ptr %8, align 8
  %38 = icmp ne ptr %37, null
  br i1 %38, label %39, label %50

39:                                               ; preds = %36
  %40 = load i32, ptr %5, align 4
  %41 = load ptr, ptr %8, align 8
  %42 = getelementptr inbounds %struct.CVodeBMemRec, ptr %41, i32 0, i32 0
  %43 = load i32, ptr %42, align 8
  %44 = icmp eq i32 %40, %43
  br i1 %44, label %45, label %46

45:                                               ; preds = %39
  br label %50

46:                                               ; preds = %39
  %47 = load ptr, ptr %8, align 8
  %48 = getelementptr inbounds %struct.CVodeBMemRec, ptr %47, i32 0, i32 16
  %49 = load ptr, ptr %48, align 8
  store ptr %49, ptr %8, align 8
  br label %36

50:                                               ; preds = %45, %36
  %51 = load ptr, ptr %8, align 8
  %52 = getelementptr inbounds %struct.CVodeBMemRec, ptr %51, i32 0, i32 2
  %53 = load ptr, ptr %52, align 8
  store ptr %53, ptr %9, align 8
  %54 = load ptr, ptr %9, align 8
  store ptr %54, ptr %3, align 8
  br label %55

55:                                               ; preds = %50, %30, %19, %12
  %56 = load ptr, ptr %3, align 8
  ret ptr %56
}